target datalayout = "e-m:e-p270:32:32-p271:32:32-p272:64:64-i64:64-i128:128-f80:128-n8:16:32:64-S128"
target triple = "x86_64-pc-linux-gnu"

; Function Attrs: nounwind uwtable
define void @lv_draw_sw_i1_invert(ptr noundef %0, i32 noundef %1) #0 {
  %3 = alloca ptr, align 8
  %4 = alloca i32, align 4
  %5 = alloca ptr, align 8
  %6 = alloca i32, align 4
  %7 = alloca ptr, align 8
  %8 = alloca i32, align 4
  store ptr %0, ptr %3, align 8, !tbaa !7
  store i32 %1, ptr %4, align 4, !tbaa !3
  %9 = load ptr, ptr %3, align 8, !tbaa !7
  %10 = icmp eq ptr %9, null
  br i1 %10, label %11, label %12

11:                                               ; preds = %2
  br label %92

12:                                               ; preds = %2
  call void @llvm.lifetime.start.p0(i64 8, ptr %5) #4
  %13 = load ptr, ptr %3, align 8, !tbaa !7
  store ptr %13, ptr %5, align 8, !tbaa !7
  call void @llvm.lifetime.start.p0(i64 4, ptr %6) #4
  br label %14

14:                                               ; preds = %24, %12
  %15 = load ptr, ptr %5, align 8, !tbaa !7
  %16 = ptrtoint ptr %15 to i64
  %17 = and i64 %16, 3
  %18 = icmp ne i64 %17, 0
  br i1 %18, label %19, label %22

19:                                               ; preds = %14
  %20 = load i32, ptr %4, align 4, !tbaa !3
  %21 = icmp ugt i32 %20, 0
  br label %22

22:                                               ; preds = %19, %14
  %23 = phi i1 [ false, %14 ], [ %21, %19 ]
  br i1 %23, label %24, label %35

24:                                               ; preds = %22
  %25 = load ptr, ptr %5, align 8, !tbaa !7
  %26 = load i8, ptr %25, align 1, !tbaa !48
  %27 = zext i8 %26 to i32
  %28 = xor i32 %27, -1
  %29 = trunc i32 %28 to i8
  %30 = load ptr, ptr %5, align 8, !tbaa !7
  store i8 %29, ptr %30, align 1, !tbaa !48
  %31 = load ptr, ptr %5, align 8, !tbaa !7
  %32 = getelementptr inbounds nuw i8, ptr %31, i32 1
  store ptr %32, ptr %5, align 8, !tbaa !7
  %33 = load i32, ptr %4, align 4, !tbaa !3
  %34 = add i32 %33, -1
  store i32 %34, ptr %4, align 4, !tbaa !3
  br label %14, !llvm.loop !49

35:                                               ; preds = %22
  %36 = load i32, ptr %4, align 4, !tbaa !3
  %37 = zext i32 %36 to i64
  %38 = icmp uge i64 %37, 4
  br i1 %38, label %39, label %70

39:                                               ; preds = %35
  call void @llvm.lifetime.start.p0(i64 8, ptr %7) #4
  %40 = load ptr, ptr %5, align 8, !tbaa !7
  store ptr %40, ptr %7, align 8, !tbaa !7
  call void @llvm.lifetime.start.p0(i64 4, ptr %8) #4
  %41 = load i32, ptr %4, align 4, !tbaa !3
  %42 = udiv i32 %41, 4
  store i32 %42, ptr %8, align 4, !tbaa !3
  store i32 0, ptr %6, align 4, !tbaa !3
  br label %43

43:                                               ; preds = %58, %39
  %44 = load i32, ptr %6, align 4, !tbaa !3
  %45 = load i32, ptr %8, align 4, !tbaa !3
  %46 = icmp ult i32 %44, %45
  br i1 %46, label %47, label %61

47:                                               ; preds = %43
  %48 = load ptr, ptr %7, align 8, !tbaa !7
  %49 = load i32, ptr %6, align 4, !tbaa !3
  %50 = zext i32 %49 to i64
  %51 = getelementptr inbounds nuw i32, ptr %48, i64 %50
  %52 = load i32, ptr %51, align 4, !tbaa !3
  %53 = xor i32 %52, -1
  %54 = load ptr, ptr %7, align 8, !tbaa !7
  %55 = load i32, ptr %6, align 4, !tbaa !3
  %56 = zext i32 %55 to i64
  %57 = getelementptr inbounds nuw i32, ptr %54, i64 %56
  store i32 %53, ptr %57, align 4, !tbaa !3
  br label %58

58:                                               ; preds = %47
  %59 = load i32, ptr %6, align 4, !tbaa !3
  %60 = add i32 %59, 1
  store i32 %60, ptr %6, align 4, !tbaa !3
  br label %43, !llvm.loop !50

61:                                               ; preds = %43
  %62 = load ptr, ptr %7, align 8, !tbaa !7
  %63 = load i32, ptr %8, align 4, !tbaa !3
  %64 = zext i32 %63 to i64
  %65 = getelementptr inbounds nuw i32, ptr %62, i64 %64
  store ptr %65, ptr %5, align 8, !tbaa !7
  %66 = load i32, ptr %4, align 4, !tbaa !3
  %67 = zext i32 %66 to i64
  %68 = urem i64 %67, 4
  %69 = trunc i64 %68 to i32
  store i32 %69, ptr %4, align 4, !tbaa !3
  call void @llvm.lifetime.end.p0(i64 4, ptr %8) #4
  call void @llvm.lifetime.end.p0(i64 8, ptr %7) #4
  br label %70

70:                                               ; preds = %61, %35
  store i32 0, ptr %6, align 4, !tbaa !3
  br label %71

71:                                               ; preds = %88, %70
  %72 = load i32, ptr %6, align 4, !tbaa !3
  %73 = load i32, ptr %4, align 4, !tbaa !3
  %74 = icmp ult i32 %72, %73
  br i1 %74, label %75, label %91

75:                                               ; preds = %71
  %76 = load ptr, ptr %5, align 8, !tbaa !7
  %77 = load i32, ptr %6, align 4, !tbaa !3
  %78 = zext i32 %77 to i64
  %79 = getelementptr inbounds nuw i8, ptr %76, i64 %78
  %80 = load i8, ptr %79, align 1, !tbaa !48
  %81 = zext i8 %80 to i32
  %82 = xor i32 %81, -1
  %83 = trunc i32 %82 to i8
  %84 = load ptr, ptr %5, align 8, !tbaa !7
  %85 = load i32, ptr %6, align 4, !tbaa !3
  %86 = zext i32 %85 to i64
  %87 = getelementptr inbounds nuw i8, ptr %84, i64 %86
  store i8 %83, ptr %87, align 1, !tbaa !48
  br label %88

88:                                               ; preds = %75
  %89 = load i32, ptr %6, align 4, !tbaa !3
  %90 = add i32 %89, 1
  store i32 %90, ptr %6, align 4, !tbaa !3
  br label %71, !llvm.loop !51

91:                                               ; preds = %71
  call void @llvm.lifetime.end.p0(i64 4, ptr %6) #4
  call void @llvm.lifetime.end.p0(i64 8, ptr %5) #4
  br label %92

92:                                               ; preds = %91, %11
  ret void
}