; Function Attrs: nofree norecurse nosync nounwind memory(argmem: readwrite) uwtable
define void @lv_draw_sw_i1_invert(ptr noundef %0, i32 noundef %1) local_unnamed_addr #3 {
  %3 = icmp eq ptr %0, null
  br i1 %3, label %.loopexit, label %.preheader

.preheader:                                       ; preds = %2
  %4 = ptrtoint ptr %0 to i64
  %5 = and i64 %4, 3
  %6 = icmp ne i64 %5, 0
  %7 = icmp ne i32 %1, 0
  %8 = and i1 %6, %7
  br i1 %8, label %.lr.ph, label %._crit_edge

.lr.ph:                                           ; preds = %.preheader, %.lr.ph
  %.035 = phi i32 [ %12, %.lr.ph ], [ %1, %.preheader ]
  %.02734 = phi ptr [ %11, %.lr.ph ], [ %0, %.preheader ]
  %9 = load i8, ptr %.02734, align 1, !tbaa !42
  %10 = xor i8 %9, -1
  store i8 %10, ptr %.02734, align 1, !tbaa !42
  %11 = getelementptr inbounds nuw i8, ptr %.02734, i64 1
  %12 = add i32 %.035, -1
  %13 = ptrtoint ptr %11 to i64
  %14 = and i64 %13, 3
  %15 = icmp ne i64 %14, 0
  %16 = icmp ne i32 %12, 0
  %17 = select i1 %15, i1 %16, i1 false
  br i1 %17, label %.lr.ph, label %._crit_edge, !llvm.loop !43

._crit_edge:                                      ; preds = %.lr.ph, %.preheader
  %.027.lcssa = phi ptr [ %0, %.preheader ], [ %11, %.lr.ph ]
  %.0.lcssa = phi i32 [ %1, %.preheader ], [ %12, %.lr.ph ]
  %18 = icmp ugt i32 %.0.lcssa, 3
  br i1 %18, label %.lr.ph39.preheader, label %25

.lr.ph39.preheader:                               ; preds = %._crit_edge
  %19 = lshr i32 %.0.lcssa, 2
  %wide.trip.count = zext nneg i32 %19 to i64
  br label %.lr.ph39

.lr.ph39:                                         ; preds = %.lr.ph39.preheader, %.lr.ph39
  %indvars.iv = phi i64 [ 0, %.lr.ph39.preheader ], [ %indvars.iv.next, %.lr.ph39 ]
  %20 = getelementptr inbounds nuw i32, ptr %.027.lcssa, i64 %indvars.iv
  %21 = load i32, ptr %20, align 4, !tbaa !37
  %22 = xor i32 %21, -1
  store i32 %22, ptr %20, align 4, !tbaa !37
  %indvars.iv.next = add nuw nsw i64 %indvars.iv, 1
  %exitcond.not = icmp eq i64 %indvars.iv.next, %wide.trip.count
  br i1 %exitcond.not, label %._crit_edge40, label %.lr.ph39, !llvm.loop !44

._crit_edge40:                                    ; preds = %.lr.ph39
  %23 = getelementptr inbounds nuw i32, ptr %.027.lcssa, i64 %wide.trip.count
  %24 = and i32 %.0.lcssa, 3
  br label %25

25:                                               ; preds = %._crit_edge40, %._crit_edge
  %.128 = phi ptr [ %23, %._crit_edge40 ], [ %.027.lcssa, %._crit_edge ]
  %.1 = phi i32 [ %24, %._crit_edge40 ], [ %.0.lcssa, %._crit_edge ]
  %.not = icmp eq i32 %.1, 0
  br i1 %.not, label %.loopexit, label %.lr.ph43.preheader

.lr.ph43.preheader:                               ; preds = %25
  %wide.trip.count49 = zext nneg i32 %.1 to i64
  br label %.lr.ph43

.lr.ph43:                                         ; preds = %.lr.ph43.preheader, %.lr.ph43
  %indvars.iv46 = phi i64 [ 0, %.lr.ph43.preheader ], [ %indvars.iv.next47, %.lr.ph43 ]
  %26 = getelementptr inbounds nuw i8, ptr %.128, i64 %indvars.iv46
  %27 = load i8, ptr %26, align 1, !tbaa !42
  %28 = xor i8 %27, -1
  store i8 %28, ptr %26, align 1, !tbaa !42
  %indvars.iv.next47 = add nuw nsw i64 %indvars.iv46, 1
  %exitcond50.not = icmp eq i64 %indvars.iv.next47, %wide.trip.count49
  br i1 %exitcond50.not, label %.loopexit, label %.lr.ph43, !llvm.loop !45

.loopexit:                                        ; preds = %.lr.ph43, %25, %2
  ret void
}